target datalayout = "e-m:e-p270:32:32-p271:32:32-p272:64:64-i64:64-i128:128-f80:128-n8:16:32:64-S128"
target triple = "x86_64-pc-linux-gnu"

%struct.slurm_conf_t = type { i64, ptr, i16, ptr, ptr, ptr, ptr, ptr, i16, ptr, ptr, ptr, ptr, ptr, ptr, ptr, i16, ptr, ptr, ptr, ptr, i16, ptr, ptr, ptr, i64, ptr, ptr, ptr, ptr, i16, ptr, ptr, i16, i32, ptr, i32, ptr, i32, i32, ptr, ptr, i64, i64, ptr, i16, i16, ptr, i32, i32, ptr, i32, ptr, i32, i16, i16, i16, ptr, i16, i16, ptr, ptr, i32, i16, i16, ptr, i32, i16, ptr, ptr, ptr, ptr, i16, ptr, ptr, ptr, ptr, i32, ptr, ptr, ptr, ptr, i16, i16, ptr, i32, i32, i32, i16, i16, ptr, ptr, i16, ptr, ptr, i32, i32, i32, i32, i32, i64, i32, i32, i16, ptr, ptr, i32, ptr, ptr, ptr, i16, i32, ptr, ptr, i16, ptr, ptr, i32, i16, ptr, ptr, ptr, ptr, i32, i32, i16, i16, i32, ptr, i16, ptr, i32, i32, i32, i32, i32, i32, ptr, i16, ptr, ptr, i32, i16, ptr, i32, i16, i16, ptr, ptr, ptr, i16, ptr, ptr, ptr, ptr, i16, i16, ptr, i16, ptr, i16, ptr, i16, ptr, i16, ptr, ptr, ptr, ptr, i16, ptr, ptr, ptr, i32, ptr, i32, ptr, ptr, i16, ptr, ptr, i32, i16, ptr, ptr, i16, i16, ptr, i16, ptr, ptr, ptr, i32, ptr, i16, i16, ptr, ptr, ptr, ptr, ptr, ptr, ptr, ptr, i16, i32, i16, ptr, ptr, ptr, ptr, i32, ptr, ptr, ptr, i16, ptr, ptr, ptr, i16, ptr, i16, ptr, i16, i16, ptr }
%struct.data_s = type { i32, i32, %union.anon }
%union.anon = type { ptr }

@slurm_conf = external global %struct.slurm_conf_t, align 8
@.str.4 = private unnamed_addr constant [23 x i8] c"DATA: %s: set %pD=null\00", align 1
@__func__._data_set_string_own = private unnamed_addr constant [21 x i8] c"_data_set_string_own\00", align 1
@.str.71 = private unnamed_addr constant [32 x i8] c"DATA: %s: set inline string %pD\00", align 1
@__func__._set_data_string_inline = private unnamed_addr constant [24 x i8] c"_set_data_string_inline\00", align 1
@.str.72 = private unnamed_addr constant [25 x i8] c"DATA: %s: set string %pD\00", align 1
@__func__._set_data_string_ptr = private unnamed_addr constant [21 x i8] c"_set_data_string_ptr\00", align 1

; Function Attrs: nounwind uwtable
define internal void @_check_data_list_magic(ptr noundef %0) #0 {
  %2 = alloca ptr, align 8
  store ptr %0, ptr %2, align 8
  ret void
}

; Function Attrs: nounwind uwtable
define internal void @_set_data_string_ptr(ptr noundef %0, i64 noundef %1, ptr noundef %2) #0 {
  %4 = alloca ptr, align 8
  %5 = alloca i64, align 8
  %6 = alloca ptr, align 8
  store ptr %0, ptr %4, align 8
  store i64 %1, ptr %5, align 8
  store ptr %2, ptr %6, align 8
  %7 = load ptr, ptr %4, align 8
  %8 = getelementptr inbounds nuw %struct.data_s, ptr %7, i32 0, i32 1
  store i32 65285, ptr %8, align 4
  %9 = load ptr, ptr %6, align 8
  %10 = load ptr, ptr %9, align 8
  %11 = load ptr, ptr %4, align 8
  %12 = getelementptr inbounds nuw %struct.data_s, ptr %11, i32 0, i32 2
  store ptr %10, ptr %12, align 8
  %13 = load ptr, ptr %6, align 8
  store ptr null, ptr %13, align 8
  br label %14

14:                                               ; preds = %3
  %15 = load i64, ptr getelementptr inbounds nuw (%struct.slurm_conf_t, ptr @slurm_conf, i32 0, i32 42), align 8
  %16 = and i64 %15, 256
  %17 = icmp ne i64 %16, 0
  br i1 %17, label %18, label %24

18:                                               ; preds = %14
  %19 = load ptr, ptr %4, align 8
  %20 = getelementptr inbounds nuw %struct.data_s, ptr %19, i32 0, i32 2
  %21 = load ptr, ptr %20, align 8
  %22 = load i64, ptr %5, align 8
  %23 = load ptr, ptr %4, align 8
  call void (ptr, i64, i64, i64, ptr, ...) @_log_flag_hex(ptr noundef %21, i64 noundef %22, i64 noundef -1, i64 noundef -1, ptr noundef @.str.72, ptr noundef @__func__._set_data_string_ptr, ptr noundef %23)
  br label %24

24:                                               ; preds = %18, %14
  br label %25

25:                                               ; preds = %24
  ret void
}

; Function Attrs: nounwind uwtable
define internal void @_set_data_string_inline(ptr noundef %0, i64 noundef %1, ptr noundef %2) #0 {
  %4 = alloca ptr, align 8
  %5 = alloca i64, align 8
  %6 = alloca ptr, align 8
  store ptr %0, ptr %4, align 8
  store i64 %1, ptr %5, align 8
  store ptr %2, ptr %6, align 8
  %7 = load ptr, ptr %4, align 8
  %8 = getelementptr inbounds nuw %struct.data_s, ptr %7, i32 0, i32 2
  %9 = getelementptr inbounds [8 x i8], ptr %8, i64 0, i64 0
  %10 = load ptr, ptr %6, align 8
  %11 = load i64, ptr %5, align 8
  %12 = add i64 %11, 1
  call void @llvm.memmove.p0.p0.i64(ptr align 8 %9, ptr align 1 %10, i64 %12, i1 false)
  %13 = load ptr, ptr %4, align 8
  %14 = getelementptr inbounds nuw %struct.data_s, ptr %13, i32 0, i32 1
  store i32 65286, ptr %14, align 4
  br label %15

15:                                               ; preds = %3
  %16 = load i64, ptr getelementptr inbounds nuw (%struct.slurm_conf_t, ptr @slurm_conf, i32 0, i32 42), align 8
  %17 = and i64 %16, 256
  %18 = icmp ne i64 %17, 0
  br i1 %18, label %19, label %25

19:                                               ; preds = %15
  %20 = load ptr, ptr %4, align 8
  %21 = getelementptr inbounds nuw %struct.data_s, ptr %20, i32 0, i32 2
  %22 = getelementptr inbounds [8 x i8], ptr %21, i64 0, i64 0
  %23 = load i64, ptr %5, align 8
  %24 = load ptr, ptr %4, align 8
  call void (ptr, i64, i64, i64, ptr, ...) @_log_flag_hex(ptr noundef %22, i64 noundef %23, i64 noundef -1, i64 noundef -1, ptr noundef @.str.71, ptr noundef @__func__._set_data_string_inline, ptr noundef %24)
  br label %25

25:                                               ; preds = %19, %15
  br label %26

26:                                               ; preds = %25
  ret void
}

; Function Attrs: nounwind uwtable
define internal void @_check_magic(ptr noundef %0) #0 {
  %2 = alloca ptr, align 8
  store ptr %0, ptr %2, align 8
  %3 = load ptr, ptr %2, align 8
  %4 = icmp ne ptr %3, null
  br i1 %4, label %6, label %5

5:                                                ; preds = %1
  br label %29

6:                                                ; preds = %1
  %7 = load i64, ptr getelementptr inbounds nuw (%struct.slurm_conf_t, ptr @slurm_conf, i32 0, i32 42), align 8
  %8 = and i64 %7, 256
  %9 = icmp ne i64 %8, 0
  br i1 %9, label %10, label %29

10:                                               ; preds = %6
  %11 = load ptr, ptr %2, align 8
  %12 = getelementptr inbounds nuw %struct.data_s, ptr %11, i32 0, i32 1
  %13 = load i32, ptr %12, align 4
  %14 = icmp eq i32 %13, 65282
  br i1 %14, label %15, label %19

15:                                               ; preds = %10
  %16 = load ptr, ptr %2, align 8
  %17 = getelementptr inbounds nuw %struct.data_s, ptr %16, i32 0, i32 2
  %18 = load ptr, ptr %17, align 8
  call void @_check_data_list_magic(ptr noundef %18)
  br label %19

19:                                               ; preds = %15, %10
  %20 = load ptr, ptr %2, align 8
  %21 = getelementptr inbounds nuw %struct.data_s, ptr %20, i32 0, i32 1
  %22 = load i32, ptr %21, align 4
  %23 = icmp eq i32 %22, 65283
  br i1 %23, label %24, label %28

24:                                               ; preds = %19
  %25 = load ptr, ptr %2, align 8
  %26 = getelementptr inbounds nuw %struct.data_s, ptr %25, i32 0, i32 2
  %27 = load ptr, ptr %26, align 8
  call void @_check_data_list_magic(ptr noundef %27)
  br label %28

28:                                               ; preds = %24, %19
  br label %29

29:                                               ; preds = %5, %28, %6
  ret void
}

; Function Attrs: nounwind uwtable
define dso_local ptr @_data_set_string_own(ptr noundef %0, ptr noundef %1) #0 {
  %3 = alloca ptr, align 8
  %4 = alloca ptr, align 8
  %5 = alloca ptr, align 8
  %6 = alloca ptr, align 8
  %7 = alloca i32, align 4
  %8 = alloca i32, align 4
  store ptr %0, ptr %4, align 8
  store ptr %1, ptr %5, align 8
  call void @llvm.lifetime.start.p0(i64 8, ptr %6) #10
  call void @llvm.lifetime.start.p0(i64 4, ptr %7) #10
  %9 = load ptr, ptr %4, align 8
  call void @_check_magic(ptr noundef %9)
  %10 = load ptr, ptr %4, align 8
  %11 = icmp ne ptr %10, null
  br i1 %11, label %14, label %12

12:                                               ; preds = %2
  %13 = load ptr, ptr %5, align 8
  call void @slurm_xfree(ptr noundef %13)
  store ptr null, ptr %3, align 8
  store i32 1, ptr %8, align 4
  br label %58

14:                                               ; preds = %2
  %15 = load ptr, ptr %4, align 8
  call void @_release(ptr noundef %15)
  %16 = load ptr, ptr %5, align 8
  %17 = load ptr, ptr %16, align 8
  store ptr %17, ptr %6, align 8
  %18 = load ptr, ptr %5, align 8
  store ptr null, ptr %18, align 8
  %19 = load ptr, ptr %6, align 8
  %20 = icmp ne ptr %19, null
  br i1 %20, label %41, label %21

21:                                               ; preds = %14
  %22 = load ptr, ptr %4, align 8
  %23 = getelementptr inbounds nuw %struct.data_s, ptr %22, i32 0, i32 1
  store i32 65281, ptr %23, align 4
  br label %24

24:                                               ; preds = %21
  %25 = load i64, ptr getelementptr inbounds nuw (%struct.slurm_conf_t, ptr @slurm_conf, i32 0, i32 42), align 8
  %26 = and i64 %25, 256
  %27 = icmp ne i64 %26, 0
  br i1 %27, label %28, label %37

28:                                               ; preds = %24
  br label %29

29:                                               ; preds = %28
  %30 = call i32 @get_log_level()
  %31 = icmp sge i32 %30, 4
  br i1 %31, label %32, label %34

32:                                               ; preds = %29
  %33 = load ptr, ptr %4, align 8
  call void (i32, ptr, ...) @log_var(i32 noundef 4, ptr noundef @.str.4, ptr noundef @__func__._data_set_string_own, ptr noundef %33)
  br label %34

34:                                               ; preds = %32, %29
  br label %35

35:                                               ; preds = %34
  br label %36

36:                                               ; preds = %35
  br label %37

37:                                               ; preds = %36, %24
  br label %38

38:                                               ; preds = %37
  br label %39

39:                                               ; preds = %38
  %40 = load ptr, ptr %4, align 8
  store ptr %40, ptr %3, align 8
  store i32 1, ptr %8, align 4
  br label %58

41:                                               ; preds = %14
  %42 = load ptr, ptr %6, align 8
  %43 = call i64 @strlen(ptr noundef %42) #11
  %44 = trunc i64 %43 to i32
  store i32 %44, ptr %7, align 4
  %45 = sext i32 %44 to i64
  %46 = icmp ult i64 %45, 8
  br i1 %46, label %47, label %52

47:                                               ; preds = %41
  %48 = load ptr, ptr %4, align 8
  %49 = load i32, ptr %7, align 4
  %50 = sext i32 %49 to i64
  %51 = load ptr, ptr %6, align 8
  call void @_set_data_string_inline(ptr noundef %48, i64 noundef %50, ptr noundef %51)
  call void @slurm_xfree(ptr noundef %6)
  br label %56

52:                                               ; preds = %41
  %53 = load ptr, ptr %4, align 8
  %54 = load i32, ptr %7, align 4
  %55 = sext i32 %54 to i64
  call void @_set_data_string_ptr(ptr noundef %53, i64 noundef %55, ptr noundef %6)
  br label %56

56:                                               ; preds = %52, %47
  %57 = load ptr, ptr %4, align 8
  store ptr %57, ptr %3, align 8
  store i32 1, ptr %8, align 4
  br label %58

58:                                               ; preds = %56, %39, %12
  call void @llvm.lifetime.end.p0(i64 4, ptr %7) #10
  call void @llvm.lifetime.end.p0(i64 8, ptr %6) #10
  %59 = load ptr, ptr %3, align 8
  ret ptr %59
}