; Function Attrs: nounwind uwtable
define dso_local noundef ptr @_data_set_string_own(ptr noundef returned %0, ptr noundef %1) local_unnamed_addr #0 {
  %3 = alloca ptr, align 8
  call void @llvm.lifetime.start.p0(i64 8, ptr nonnull %3) #16
  %.not = icmp eq ptr %0, null
  br i1 %.not, label %4, label %5

4:                                                ; preds = %2
  tail call void @slurm_xfree(ptr noundef %1) #16
  br label %_set_data_string_ptr.exit

5:                                                ; preds = %2
  tail call fastcc void @_release(ptr noundef nonnull %0)
  %6 = load ptr, ptr %1, align 8
  store ptr %6, ptr %3, align 8
  store ptr null, ptr %1, align 8
  %.not17 = icmp eq ptr %6, null
  br i1 %.not17, label %7, label %15

7:                                                ; preds = %5
  %8 = getelementptr inbounds nuw i8, ptr %0, i64 4
  store i32 65281, ptr %8, align 4
  %9 = load i64, ptr getelementptr inbounds nuw (i8, ptr @slurm_conf, i64 320), align 8
  %10 = and i64 %9, 256
  %.not18 = icmp eq i64 %10, 0
  br i1 %.not18, label %_set_data_string_ptr.exit, label %11

11:                                               ; preds = %7
  %12 = tail call i32 @get_log_level() #16
  %13 = icmp sgt i32 %12, 3
  br i1 %13, label %14, label %_set_data_string_ptr.exit

14:                                               ; preds = %11
  tail call void (i32, ptr, ...) @log_var(i32 noundef 4, ptr noundef nonnull @.str.4, ptr noundef nonnull @__func__._data_set_string_own, ptr noundef nonnull %0) #16
  br label %_set_data_string_ptr.exit

15:                                               ; preds = %5
  %16 = tail call i64 @strlen(ptr noundef nonnull dereferenceable(1) %6) #17
  %sext = shl i64 %16, 32
  %17 = ashr exact i64 %sext, 32
  %18 = icmp ult i64 %17, 8
  br i1 %18, label %19, label %26

19:                                               ; preds = %15
  %20 = getelementptr inbounds nuw i8, ptr %0, i64 8
  %21 = add nuw nsw i64 %17, 1
  tail call void @llvm.memmove.p0.p0.i64(ptr noundef nonnull align 8 dereferenceable(1) %20, ptr noundef nonnull readonly align 1 dereferenceable(1) %6, i64 %21, i1 false)
  %22 = getelementptr inbounds nuw i8, ptr %0, i64 4
  store i32 65286, ptr %22, align 4
  %23 = load i64, ptr getelementptr inbounds nuw (i8, ptr @slurm_conf, i64 320), align 8
  %24 = and i64 %23, 256
  %.not.i = icmp eq i64 %24, 0
  br i1 %.not.i, label %_set_data_string_inline.exit, label %25

25:                                               ; preds = %19
  tail call void (ptr, i64, i64, i64, ptr, ...) @_log_flag_hex(ptr noundef nonnull %20, i64 noundef range(i64 0, 8) %17, i64 noundef -1, i64 noundef -1, ptr noundef nonnull @.str.71, ptr noundef nonnull @__func__._set_data_string_inline, ptr noundef nonnull %0) #16
  br label %_set_data_string_inline.exit

_set_data_string_inline.exit:                     ; preds = %19, %25
  call void @slurm_xfree(ptr noundef nonnull %3) #16
  br label %_set_data_string_ptr.exit

26:                                               ; preds = %15
  %27 = getelementptr inbounds nuw i8, ptr %0, i64 4
  store i32 65285, ptr %27, align 4
  %28 = getelementptr inbounds nuw i8, ptr %0, i64 8
  store ptr %6, ptr %28, align 8
  %29 = load i64, ptr getelementptr inbounds nuw (i8, ptr @slurm_conf, i64 320), align 8
  %30 = and i64 %29, 256
  %.not.i19 = icmp eq i64 %30, 0
  br i1 %.not.i19, label %_set_data_string_ptr.exit, label %31

31:                                               ; preds = %26
  tail call void (ptr, i64, i64, i64, ptr, ...) @_log_flag_hex(ptr noundef nonnull %6, i64 noundef range(i64 -2147483648, 2147483648) %17, i64 noundef -1, i64 noundef -1, ptr noundef nonnull @.str.72, ptr noundef nonnull @__func__._set_data_string_ptr, ptr noundef nonnull %0) #16
  br label %_set_data_string_ptr.exit

_set_data_string_ptr.exit:                        ; preds = %31, %26, %_set_data_string_inline.exit, %7, %14, %11, %4
  call void @llvm.lifetime.end.p0(i64 8, ptr nonnull %3) #16
  ret ptr %0
}